; Function Attrs: mustprogress nounwind uwtable
define void @_ZN6icu_756number4impl20UFormattedNumberDataD2Ev(ptr noundef nonnull align 8 dereferenceable(408) %this) unnamed_addr #0 align 2 {
entry:
  store ptr getelementptr inbounds ({ [8 x ptr] }, ptr @_ZTVN6icu_756number4impl20UFormattedNumberDataE, i64 0, i32 0, i64 2), ptr %this, align 8
  %outputUnit = getelementptr inbounds i8, ptr %this, i64 376
  tail call void @_ZN6icu_7511MeasureUnitD1Ev(ptr noundef nonnull align 8 dereferenceable(19) %outputUnit) #10
  %quantity = getelementptr inbounds i8, ptr %this, i64 304
  tail call void @_ZN6icu_756number4impl15DecimalQuantityD1Ev(ptr noundef nonnull align 8 dereferenceable(66) %quantity) #10
  tail call void @_ZN6icu_7531FormattedValueStringBuilderImplD2Ev(ptr noundef nonnull align 8 dereferenceable(300) %this) #10
  ret void
}